target datalayout = "e-m:e-p270:32:32-p271:32:32-p272:64:64-i64:64-i128:128-f80:128-n8:16:32:64-S128"
target triple = "x86_64-unknown-linux-gnu"

; Function Attrs: nounwind sspstrong uwtable
define internal void @aesenc_SB_SR_MC_AK_swap(ptr noundef %r, ptr noundef %st, ptr noundef %rk, i1 noundef zeroext %swap) #0 {
entry:
  %r.addr = alloca ptr, align 8
  %st.addr = alloca ptr, align 8
  %rk.addr = alloca ptr, align 8
  %swap.addr = alloca i8, align 1
  %swap_b = alloca i32, align 4
  %swap_w = alloca i32, align 4
  %be = alloca i8, align 1
  %w0 = alloca i32, align 4
  %w1 = alloca i32, align 4
  %w2 = alloca i32, align 4
  %w3 = alloca i32, align 4
  store ptr %r, ptr %r.addr, align 8
  store ptr %st, ptr %st.addr, align 8
  store ptr %rk, ptr %rk.addr, align 8
  %frombool = zext i1 %swap to i8
  store i8 %frombool, ptr %swap.addr, align 1
  %0 = load i8, ptr %swap.addr, align 1
  %tobool = trunc i8 %0 to i1
  %conv = zext i1 %tobool to i32
  %mul = mul i32 %conv, 15
  store i32 %mul, ptr %swap_b, align 4
  %1 = load i8, ptr %swap.addr, align 1
  %tobool1 = trunc i8 %1 to i1
  %conv2 = zext i1 %tobool1 to i32
  %mul3 = mul i32 %conv2, 3
  store i32 %mul3, ptr %swap_w, align 4
  %2 = load i8, ptr %swap.addr, align 1
  %tobool4 = trunc i8 %2 to i1
  %conv5 = zext i1 %tobool4 to i32
  %xor = xor i32 0, %conv5
  %tobool6 = icmp ne i32 %xor, 0
  %frombool7 = zext i1 %tobool6 to i8
  store i8 %frombool7, ptr %be, align 1
  %3 = load ptr, ptr %st.addr, align 8
  %4 = load i32, ptr %swap_b, align 4
  %xor8 = xor i32 %4, 0
  %idxprom = sext i32 %xor8 to i64
  %arrayidx = getelementptr [16 x i8], ptr %3, i64 0, i64 %idxprom
  %5 = load i8, ptr %arrayidx, align 1
  %idxprom9 = zext i8 %5 to i64
  %arrayidx10 = getelementptr [256 x i32], ptr @AES_Te0, i64 0, i64 %idxprom9
  %6 = load i32, ptr %arrayidx10, align 4
  %7 = load ptr, ptr %st.addr, align 8
  %8 = load i32, ptr %swap_b, align 4
  %xor11 = xor i32 %8, 5
  %idxprom12 = sext i32 %xor11 to i64
  %arrayidx13 = getelementptr [16 x i8], ptr %7, i64 0, i64 %idxprom12
  %9 = load i8, ptr %arrayidx13, align 1
  %idxprom14 = zext i8 %9 to i64
  %arrayidx15 = getelementptr [256 x i32], ptr @AES_Te1, i64 0, i64 %idxprom14
  %10 = load i32, ptr %arrayidx15, align 4
  %xor16 = xor i32 %6, %10
  %11 = load ptr, ptr %st.addr, align 8
  %12 = load i32, ptr %swap_b, align 4
  %xor17 = xor i32 %12, 10
  %idxprom18 = sext i32 %xor17 to i64
  %arrayidx19 = getelementptr [16 x i8], ptr %11, i64 0, i64 %idxprom18
  %13 = load i8, ptr %arrayidx19, align 1
  %idxprom20 = zext i8 %13 to i64
  %arrayidx21 = getelementptr [256 x i32], ptr @AES_Te2, i64 0, i64 %idxprom20
  %14 = load i32, ptr %arrayidx21, align 4
  %xor22 = xor i32 %xor16, %14
  %15 = load ptr, ptr %st.addr, align 8
  %16 = load i32, ptr %swap_b, align 4
  %xor23 = xor i32 %16, 15
  %idxprom24 = sext i32 %xor23 to i64
  %arrayidx25 = getelementptr [16 x i8], ptr %15, i64 0, i64 %idxprom24
  %17 = load i8, ptr %arrayidx25, align 1
  %idxprom26 = zext i8 %17 to i64
  %arrayidx27 = getelementptr [256 x i32], ptr @AES_Te3, i64 0, i64 %idxprom26
  %18 = load i32, ptr %arrayidx27, align 4
  %xor28 = xor i32 %xor22, %18
  store i32 %xor28, ptr %w0, align 4
  %19 = load ptr, ptr %st.addr, align 8
  %20 = load i32, ptr %swap_b, align 4
  %xor29 = xor i32 %20, 4
  %idxprom30 = sext i32 %xor29 to i64
  %arrayidx31 = getelementptr [16 x i8], ptr %19, i64 0, i64 %idxprom30
  %21 = load i8, ptr %arrayidx31, align 1
  %idxprom32 = zext i8 %21 to i64
  %arrayidx33 = getelementptr [256 x i32], ptr @AES_Te0, i64 0, i64 %idxprom32
  %22 = load i32, ptr %arrayidx33, align 4
  %23 = load ptr, ptr %st.addr, align 8
  %24 = load i32, ptr %swap_b, align 4
  %xor34 = xor i32 %24, 9
  %idxprom35 = sext i32 %xor34 to i64
  %arrayidx36 = getelementptr [16 x i8], ptr %23, i64 0, i64 %idxprom35
  %25 = load i8, ptr %arrayidx36, align 1
  %idxprom37 = zext i8 %25 to i64
  %arrayidx38 = getelementptr [256 x i32], ptr @AES_Te1, i64 0, i64 %idxprom37
  %26 = load i32, ptr %arrayidx38, align 4
  %xor39 = xor i32 %22, %26
  %27 = load ptr, ptr %st.addr, align 8
  %28 = load i32, ptr %swap_b, align 4
  %xor40 = xor i32 %28, 14
  %idxprom41 = sext i32 %xor40 to i64
  %arrayidx42 = getelementptr [16 x i8], ptr %27, i64 0, i64 %idxprom41
  %29 = load i8, ptr %arrayidx42, align 1
  %idxprom43 = zext i8 %29 to i64
  %arrayidx44 = getelementptr [256 x i32], ptr @AES_Te2, i64 0, i64 %idxprom43
  %30 = load i32, ptr %arrayidx44, align 4
  %xor45 = xor i32 %xor39, %30
  %31 = load ptr, ptr %st.addr, align 8
  %32 = load i32, ptr %swap_b, align 4
  %xor46 = xor i32 %32, 3
  %idxprom47 = sext i32 %xor46 to i64
  %arrayidx48 = getelementptr [16 x i8], ptr %31, i64 0, i64 %idxprom47
  %33 = load i8, ptr %arrayidx48, align 1
  %idxprom49 = zext i8 %33 to i64
  %arrayidx50 = getelementptr [256 x i32], ptr @AES_Te3, i64 0, i64 %idxprom49
  %34 = load i32, ptr %arrayidx50, align 4
  %xor51 = xor i32 %xor45, %34
  store i32 %xor51, ptr %w1, align 4
  %35 = load ptr, ptr %st.addr, align 8
  %36 = load i32, ptr %swap_b, align 4
  %xor52 = xor i32 %36, 8
  %idxprom53 = sext i32 %xor52 to i64
  %arrayidx54 = getelementptr [16 x i8], ptr %35, i64 0, i64 %idxprom53
  %37 = load i8, ptr %arrayidx54, align 1
  %idxprom55 = zext i8 %37 to i64
  %arrayidx56 = getelementptr [256 x i32], ptr @AES_Te0, i64 0, i64 %idxprom55
  %38 = load i32, ptr %arrayidx56, align 4
  %39 = load ptr, ptr %st.addr, align 8
  %40 = load i32, ptr %swap_b, align 4
  %xor57 = xor i32 %40, 13
  %idxprom58 = sext i32 %xor57 to i64
  %arrayidx59 = getelementptr [16 x i8], ptr %39, i64 0, i64 %idxprom58
  %41 = load i8, ptr %arrayidx59, align 1
  %idxprom60 = zext i8 %41 to i64
  %arrayidx61 = getelementptr [256 x i32], ptr @AES_Te1, i64 0, i64 %idxprom60
  %42 = load i32, ptr %arrayidx61, align 4
  %xor62 = xor i32 %38, %42
  %43 = load ptr, ptr %st.addr, align 8
  %44 = load i32, ptr %swap_b, align 4
  %xor63 = xor i32 %44, 2
  %idxprom64 = sext i32 %xor63 to i64
  %arrayidx65 = getelementptr [16 x i8], ptr %43, i64 0, i64 %idxprom64
  %45 = load i8, ptr %arrayidx65, align 1
  %idxprom66 = zext i8 %45 to i64
  %arrayidx67 = getelementptr [256 x i32], ptr @AES_Te2, i64 0, i64 %idxprom66
  %46 = load i32, ptr %arrayidx67, align 4
  %xor68 = xor i32 %xor62, %46
  %47 = load ptr, ptr %st.addr, align 8
  %48 = load i32, ptr %swap_b, align 4
  %xor69 = xor i32 %48, 7
  %idxprom70 = sext i32 %xor69 to i64
  %arrayidx71 = getelementptr [16 x i8], ptr %47, i64 0, i64 %idxprom70
  %49 = load i8, ptr %arrayidx71, align 1
  %idxprom72 = zext i8 %49 to i64
  %arrayidx73 = getelementptr [256 x i32], ptr @AES_Te3, i64 0, i64 %idxprom72
  %50 = load i32, ptr %arrayidx73, align 4
  %xor74 = xor i32 %xor68, %50
  store i32 %xor74, ptr %w2, align 4
  %51 = load ptr, ptr %st.addr, align 8
  %52 = load i32, ptr %swap_b, align 4
  %xor75 = xor i32 %52, 12
  %idxprom76 = sext i32 %xor75 to i64
  %arrayidx77 = getelementptr [16 x i8], ptr %51, i64 0, i64 %idxprom76
  %53 = load i8, ptr %arrayidx77, align 1
  %idxprom78 = zext i8 %53 to i64
  %arrayidx79 = getelementptr [256 x i32], ptr @AES_Te0, i64 0, i64 %idxprom78
  %54 = load i32, ptr %arrayidx79, align 4
  %55 = load ptr, ptr %st.addr, align 8
  %56 = load i32, ptr %swap_b, align 4
  %xor80 = xor i32 %56, 1
  %idxprom81 = sext i32 %xor80 to i64
  %arrayidx82 = getelementptr [16 x i8], ptr %55, i64 0, i64 %idxprom81
  %57 = load i8, ptr %arrayidx82, align 1
  %idxprom83 = zext i8 %57 to i64
  %arrayidx84 = getelementptr [256 x i32], ptr @AES_Te1, i64 0, i64 %idxprom83
  %58 = load i32, ptr %arrayidx84, align 4
  %xor85 = xor i32 %54, %58
  %59 = load ptr, ptr %st.addr, align 8
  %60 = load i32, ptr %swap_b, align 4
  %xor86 = xor i32 %60, 6
  %idxprom87 = sext i32 %xor86 to i64
  %arrayidx88 = getelementptr [16 x i8], ptr %59, i64 0, i64 %idxprom87
  %61 = load i8, ptr %arrayidx88, align 1
  %idxprom89 = zext i8 %61 to i64
  %arrayidx90 = getelementptr [256 x i32], ptr @AES_Te2, i64 0, i64 %idxprom89
  %62 = load i32, ptr %arrayidx90, align 4
  %xor91 = xor i32 %xor85, %62
  %63 = load ptr, ptr %st.addr, align 8
  %64 = load i32, ptr %swap_b, align 4
  %xor92 = xor i32 %64, 11
  %idxprom93 = sext i32 %xor92 to i64
  %arrayidx94 = getelementptr [16 x i8], ptr %63, i64 0, i64 %idxprom93
  %65 = load i8, ptr %arrayidx94, align 1
  %idxprom95 = zext i8 %65 to i64
  %arrayidx96 = getelementptr [256 x i32], ptr @AES_Te3, i64 0, i64 %idxprom95
  %66 = load i32, ptr %arrayidx96, align 4
  %xor97 = xor i32 %xor91, %66
  store i32 %xor97, ptr %w3, align 4
  %67 = load i8, ptr %be, align 1
  %tobool98 = trunc i8 %67 to i1
  br i1 %tobool98, label %if.end, label %if.then

if.then:                                          ; preds = %entry
  %68 = load i32, ptr %w0, align 4
  %69 = call i32 @llvm.bswap.i32(i32 %68)
  store i32 %69, ptr %w0, align 4
  %70 = load i32, ptr %w1, align 4
  %71 = call i32 @llvm.bswap.i32(i32 %70)
  store i32 %71, ptr %w1, align 4
  %72 = load i32, ptr %w2, align 4
  %73 = call i32 @llvm.bswap.i32(i32 %72)
  store i32 %73, ptr %w2, align 4
  %74 = load i32, ptr %w3, align 4
  %75 = call i32 @llvm.bswap.i32(i32 %74)
  store i32 %75, ptr %w3, align 4
  br label %if.end

if.end:                                           ; preds = %if.then, %entry
  %76 = load ptr, ptr %rk.addr, align 8
  %77 = load i32, ptr %swap_w, align 4
  %xor99 = xor i32 %77, 0
  %idxprom100 = sext i32 %xor99 to i64
  %arrayidx101 = getelementptr [4 x i32], ptr %76, i64 0, i64 %idxprom100
  %78 = load i32, ptr %arrayidx101, align 4
  %79 = load i32, ptr %w0, align 4
  %xor102 = xor i32 %78, %79
  %80 = load ptr, ptr %r.addr, align 8
  %81 = load i32, ptr %swap_w, align 4
  %xor103 = xor i32 %81, 0
  %idxprom104 = sext i32 %xor103 to i64
  %arrayidx105 = getelementptr [4 x i32], ptr %80, i64 0, i64 %idxprom104
  store i32 %xor102, ptr %arrayidx105, align 4
  %82 = load ptr, ptr %rk.addr, align 8
  %83 = load i32, ptr %swap_w, align 4
  %xor106 = xor i32 %83, 1
  %idxprom107 = sext i32 %xor106 to i64
  %arrayidx108 = getelementptr [4 x i32], ptr %82, i64 0, i64 %idxprom107
  %84 = load i32, ptr %arrayidx108, align 4
  %85 = load i32, ptr %w1, align 4
  %xor109 = xor i32 %84, %85
  %86 = load ptr, ptr %r.addr, align 8
  %87 = load i32, ptr %swap_w, align 4
  %xor110 = xor i32 %87, 1
  %idxprom111 = sext i32 %xor110 to i64
  %arrayidx112 = getelementptr [4 x i32], ptr %86, i64 0, i64 %idxprom111
  store i32 %xor109, ptr %arrayidx112, align 4
  %88 = load ptr, ptr %rk.addr, align 8
  %89 = load i32, ptr %swap_w, align 4
  %xor113 = xor i32 %89, 2
  %idxprom114 = sext i32 %xor113 to i64
  %arrayidx115 = getelementptr [4 x i32], ptr %88, i64 0, i64 %idxprom114
  %90 = load i32, ptr %arrayidx115, align 4
  %91 = load i32, ptr %w2, align 4
  %xor116 = xor i32 %90, %91
  %92 = load ptr, ptr %r.addr, align 8
  %93 = load i32, ptr %swap_w, align 4
  %xor117 = xor i32 %93, 2
  %idxprom118 = sext i32 %xor117 to i64
  %arrayidx119 = getelementptr [4 x i32], ptr %92, i64 0, i64 %idxprom118
  store i32 %xor116, ptr %arrayidx119, align 4
  %94 = load ptr, ptr %rk.addr, align 8
  %95 = load i32, ptr %swap_w, align 4
  %xor120 = xor i32 %95, 3
  %idxprom121 = sext i32 %xor120 to i64
  %arrayidx122 = getelementptr [4 x i32], ptr %94, i64 0, i64 %idxprom121
  %96 = load i32, ptr %arrayidx122, align 4
  %97 = load i32, ptr %w3, align 4
  %xor123 = xor i32 %96, %97
  %98 = load ptr, ptr %r.addr, align 8
  %99 = load i32, ptr %swap_w, align 4
  %xor124 = xor i32 %99, 3
  %idxprom125 = sext i32 %xor124 to i64
  %arrayidx126 = getelementptr [4 x i32], ptr %98, i64 0, i64 %idxprom125
  store i32 %xor123, ptr %arrayidx126, align 4
  ret void
}

; Function Attrs: nounwind sspstrong uwtable
define dso_local void @aesenc_SB_SR_MC_AK_gen(ptr noundef %r, ptr noundef %st, ptr noundef %rk) #0 {
entry:
  %r.addr = alloca ptr, align 8
  %st.addr = alloca ptr, align 8
  %rk.addr = alloca ptr, align 8
  store ptr %r, ptr %r.addr, align 8
  store ptr %st, ptr %st.addr, align 8
  store ptr %rk, ptr %rk.addr, align 8
  %0 = load ptr, ptr %r.addr, align 8
  %1 = load ptr, ptr %st.addr, align 8
  %2 = load ptr, ptr %rk.addr, align 8
  call void @aesenc_SB_SR_MC_AK_swap(ptr noundef %0, ptr noundef %1, ptr noundef %2, i1 noundef zeroext false)
  ret void
}